target datalayout = "e-m:e-p270:32:32-p271:32:32-p272:64:64-i64:64-i128:128-f80:128-n8:16:32:64-S128"
target triple = "x86_64-pc-linux-gnu"

%"class.gmx::(anonymous namespace)::ElectricField" = type { %"class.gmx::IMDModule", %"class.gmx::IMdpOptionProvider", %"class.gmx::IMDOutputProvider", %"class.gmx::IForceProvider", [3 x %"class.gmx::(anonymous namespace)::ElectricFieldDimension"], ptr }
%"class.gmx::IMDModule" = type { ptr }
%"class.gmx::IMdpOptionProvider" = type { ptr }
%"class.gmx::IMDOutputProvider" = type { ptr }
%"class.gmx::IForceProvider" = type { ptr }
%"class.gmx::(anonymous namespace)::ElectricFieldDimension" = type { float, float, float, float }
%"class.std::__cxx11::basic_string" = type { %"struct.std::__cxx11::basic_string<char>::_Alloc_hider", i64, %union.anon }
%"struct.std::__cxx11::basic_string<char>::_Alloc_hider" = type { ptr }
%union.anon = type { i64, [8 x i8] }
%"class.std::allocator.37" = type { i8 }
%"class.std::filesystem::__cxx11::path" = type { %"class.std::__cxx11::basic_string", %"struct.std::filesystem::__cxx11::path::_List" }
%"struct.std::filesystem::__cxx11::path::_List" = type { %"class.std::unique_ptr.116" }
%"class.std::unique_ptr.116" = type { %"struct.std::__uniq_ptr_data.117" }
%"struct.std::__uniq_ptr_data.117" = type { %"class.std::__uniq_ptr_impl.118" }
%"class.std::__uniq_ptr_impl.118" = type { %"class.std::tuple.119" }
%"class.std::tuple.119" = type { %"struct.std::_Tuple_impl.120" }
%"struct.std::_Tuple_impl.120" = type { %"struct.std::_Head_base.123" }
%"struct.std::_Head_base.123" = type { ptr }

@.str.20 = private unnamed_addr constant [50 x i8] c"basic_string: construction from null is not valid\00", align 1
@.str.29 = private unnamed_addr constant [13 x i8] c"Caleman2008a\00", align 1
@.str.30 = private unnamed_addr constant [7 x i8] c"-field\00", align 1
@.str.31 = private unnamed_addr constant [3 x i8] c"a+\00", align 1
@.str.32 = private unnamed_addr constant [23 x i8] c"Applied electric field\00", align 1
@.str.33 = private unnamed_addr constant [10 x i8] c"Time (ps)\00", align 1
@.str.34 = private unnamed_addr constant [9 x i8] c"E (V/nm)\00", align 1

; Function Attrs: mustprogress nounwind uwtable
define linkonce_odr noundef i64 @_ZNSt11char_traitsIcE6lengthEPKc(ptr noundef %0) #1 comdat align 2 {
  %2 = alloca ptr, align 8
  store ptr %0, ptr %2, align 8
  %3 = load ptr, ptr %2, align 8
  %4 = call i64 @strlen(ptr noundef %3) #16
  ret i64 %4
}

; Function Attrs: mustprogress nounwind uwtable
define linkonce_odr void @_ZNSt7__cxx1112basic_stringIcSt11char_traitsIcESaIcEE12_Alloc_hiderD2Ev(ptr noundef nonnull align 8 dereferenceable(8) %0) unnamed_addr #1 comdat align 2 {
  %2 = alloca ptr, align 8
  store ptr %0, ptr %2, align 8
  %3 = load ptr, ptr %2, align 8
  call void @_ZNSaIcED2Ev(ptr noundef nonnull align 1 dereferenceable(1) %3) #16
  ret void
}

; Function Attrs: mustprogress nounwind uwtable
define internal noundef float @_ZNK3gmx12_GLOBAL__N_122ElectricFieldDimension1aEv(ptr noundef nonnull align 4 dereferenceable(16) %0) #1 align 2 {
  %2 = alloca ptr, align 8
  store ptr %0, ptr %2, align 8
  %3 = load ptr, ptr %2, align 8
  %4 = getelementptr inbounds %"class.gmx::(anonymous namespace)::ElectricFieldDimension", ptr %3, i32 0, i32 0
  %5 = load float, ptr %4, align 4
  ret float %5
}

; Function Attrs: mustprogress uwtable
define linkonce_odr void @_ZNSt7__cxx1112basic_stringIcSt11char_traitsIcESaIcEEC2IS3_EEPKcRKS3_(ptr noundef nonnull align 8 dereferenceable(32) %0, ptr noundef %1, ptr noundef nonnull align 1 dereferenceable(1) %2) unnamed_addr #0 comdat align 2 personality ptr @__gxx_personality_v0 {
  %4 = alloca ptr, align 8
  %5 = alloca ptr, align 8
  %6 = alloca ptr, align 8
  %7 = alloca ptr, align 8
  %8 = alloca i32, align 4
  %9 = alloca ptr, align 8
  store ptr %0, ptr %4, align 8
  store ptr %1, ptr %5, align 8
  store ptr %2, ptr %6, align 8
  %10 = load ptr, ptr %4, align 8
  %11 = getelementptr inbounds %"class.std::__cxx11::basic_string", ptr %10, i32 0, i32 0
  %12 = call noundef ptr @_ZNSt7__cxx1112basic_stringIcSt11char_traitsIcESaIcEE13_M_local_dataEv(ptr noundef nonnull align 8 dereferenceable(32) %10)
  %13 = load ptr, ptr %6, align 8
  call void @_ZNSt7__cxx1112basic_stringIcSt11char_traitsIcESaIcEE12_Alloc_hiderC1EPcRKS3_(ptr noundef nonnull align 8 dereferenceable(8) %11, ptr noundef %12, ptr noundef nonnull align 1 dereferenceable(1) %13)
  %14 = load ptr, ptr %5, align 8
  %15 = icmp eq ptr %14, null
  br i1 %15, label %16, label %22

16:                                               ; preds = %3
  invoke void @_ZSt19__throw_logic_errorPKc(ptr noundef @.str.20) #20
          to label %17 unwind label %18

17:                                               ; preds = %16
  unreachable

18:                                               ; preds = %26, %22, %16
  %19 = landingpad { ptr, i32 }
          cleanup
  %20 = extractvalue { ptr, i32 } %19, 0
  store ptr %20, ptr %7, align 8
  %21 = extractvalue { ptr, i32 } %19, 1
  store i32 %21, ptr %8, align 4
  call void @_ZNSt7__cxx1112basic_stringIcSt11char_traitsIcESaIcEE12_Alloc_hiderD2Ev(ptr noundef nonnull align 8 dereferenceable(8) %11) #16
  br label %31

22:                                               ; preds = %3
  %23 = load ptr, ptr %5, align 8
  %24 = load ptr, ptr %5, align 8
  %25 = invoke noundef i64 @_ZNSt11char_traitsIcE6lengthEPKc(ptr noundef %24)
          to label %26 unwind label %18

26:                                               ; preds = %22
  %27 = getelementptr inbounds i8, ptr %23, i64 %25
  store ptr %27, ptr %9, align 8
  %28 = load ptr, ptr %5, align 8
  %29 = load ptr, ptr %9, align 8
  invoke void @_ZNSt7__cxx1112basic_stringIcSt11char_traitsIcESaIcEE12_M_constructIPKcEEvT_S8_St20forward_iterator_tag(ptr noundef nonnull align 8 dereferenceable(32) %10, ptr noundef %28, ptr noundef %29)
          to label %30 unwind label %18

30:                                               ; preds = %26
  ret void

31:                                               ; preds = %18
  %32 = load ptr, ptr %7, align 8
  %33 = load i32, ptr %8, align 4
  %34 = insertvalue { ptr, i32 } poison, ptr %32, 0
  %35 = insertvalue { ptr, i32 } %34, i32 %33, 1
  resume { ptr, i32 } %35
}

; Function Attrs: mustprogress uwtable
define internal noundef zeroext i1 @_ZNK3gmx12_GLOBAL__N_113ElectricField8isActiveEv(ptr noundef nonnull align 8 dereferenceable(88) %0) #0 align 2 {
  %2 = alloca ptr, align 8
  store ptr %0, ptr %2, align 8
  %3 = load ptr, ptr %2, align 8
  %4 = getelementptr inbounds %"class.gmx::(anonymous namespace)::ElectricField", ptr %3, i32 0, i32 4
  %5 = getelementptr inbounds [3 x %"class.gmx::(anonymous namespace)::ElectricFieldDimension"], ptr %4, i64 0, i64 0
  %6 = call noundef float @_ZNK3gmx12_GLOBAL__N_122ElectricFieldDimension1aEv(ptr noundef nonnull align 4 dereferenceable(16) %5)
  %7 = fcmp une float %6, 0.000000e+00
  br i1 %7, label %18, label %8

8:                                                ; preds = %1
  %9 = getelementptr inbounds %"class.gmx::(anonymous namespace)::ElectricField", ptr %3, i32 0, i32 4
  %10 = getelementptr inbounds [3 x %"class.gmx::(anonymous namespace)::ElectricFieldDimension"], ptr %9, i64 0, i64 1
  %11 = call noundef float @_ZNK3gmx12_GLOBAL__N_122ElectricFieldDimension1aEv(ptr noundef nonnull align 4 dereferenceable(16) %10)
  %12 = fcmp une float %11, 0.000000e+00
  br i1 %12, label %18, label %13

13:                                               ; preds = %8
  %14 = getelementptr inbounds %"class.gmx::(anonymous namespace)::ElectricField", ptr %3, i32 0, i32 4
  %15 = getelementptr inbounds [3 x %"class.gmx::(anonymous namespace)::ElectricFieldDimension"], ptr %14, i64 0, i64 2
  %16 = call noundef float @_ZNK3gmx12_GLOBAL__N_122ElectricFieldDimension1aEv(ptr noundef nonnull align 4 dereferenceable(16) %15)
  %17 = fcmp une float %16, 0.000000e+00
  br label %18

18:                                               ; preds = %13, %8, %1
  %19 = phi i1 [ true, %8 ], [ true, %1 ], [ %17, %13 ]
  ret i1 %19
}

; Function Attrs: mustprogress uwtable
define internal void @_ZN3gmx12_GLOBAL__N_113ElectricField10initOutputEP8_IO_FILEiPK8t_filenmbPK16gmx_output_env_t(ptr noundef nonnull align 8 dereferenceable(88) %0, ptr noundef %1, i32 noundef %2, ptr noundef %3, i1 noundef zeroext %4, ptr noundef %5) unnamed_addr #0 align 2 personality ptr @__gxx_personality_v0 {
  %7 = alloca ptr, align 8
  %8 = alloca ptr, align 8
  %9 = alloca i32, align 4
  %10 = alloca ptr, align 8
  %11 = alloca i8, align 1
  %12 = alloca ptr, align 8
  %13 = alloca %"class.std::filesystem::__cxx11::path", align 8
  %14 = alloca ptr, align 8
  %15 = alloca ptr, align 8
  %16 = alloca i32, align 4
  %17 = alloca %"class.std::filesystem::__cxx11::path", align 8
  %18 = alloca ptr, align 8
  %19 = alloca %"class.std::__cxx11::basic_string", align 8
  %20 = alloca %"class.std::allocator.37", align 1
  %21 = alloca %"class.std::__cxx11::basic_string", align 8
  %22 = alloca %"class.std::allocator.37", align 1
  store ptr %0, ptr %7, align 8
  store ptr %1, ptr %8, align 8
  store i32 %2, ptr %9, align 4
  store ptr %3, ptr %10, align 8
  %23 = zext i1 %4 to i8
  store i8 %23, ptr %11, align 1
  store ptr %5, ptr %12, align 8
  %24 = load ptr, ptr %7, align 8
  %25 = call noundef zeroext i1 @_ZNK3gmx12_GLOBAL__N_113ElectricField8isActiveEv(ptr noundef nonnull align 8 dereferenceable(88) %24)
  br i1 %25, label %26, label %71

26:                                               ; preds = %6
  %27 = load ptr, ptr %8, align 8
  call void @_Z11please_citeP8_IO_FILEPKc(ptr noundef %27, ptr noundef @.str.29)
  %28 = load i32, ptr %9, align 4
  %29 = load ptr, ptr %10, align 8
  %30 = call noundef zeroext i1 @_Z8opt2bSetPKciPK8t_filenm(ptr noundef @.str.30, i32 noundef %28, ptr noundef %29)
  br i1 %30, label %31, label %70

31:                                               ; preds = %26
  %32 = load i8, ptr %11, align 1
  %33 = trunc i8 %32 to i1
  br i1 %33, label %34, label %45

34:                                               ; preds = %31
  %35 = load i32, ptr %9, align 4
  %36 = load ptr, ptr %10, align 8
  %37 = call noundef ptr @_Z6opt2fnPKciPK8t_filenm(ptr noundef @.str.30, i32 noundef %35, ptr noundef %36)
  store ptr %37, ptr %14, align 8
  call void @_ZNSt10filesystem7__cxx114pathC2IPKcS1_EERKT_NS1_6formatE(ptr noundef nonnull align 8 dereferenceable(40) %13, ptr noundef nonnull align 8 dereferenceable(8) %14, i8 noundef zeroext 2)
  %38 = invoke noundef ptr @_Z13gmx_fio_fopenRKNSt10filesystem7__cxx114pathEPKc(ptr noundef nonnull align 8 dereferenceable(40) %13, ptr noundef @.str.31)
          to label %39 unwind label %41

39:                                               ; preds = %34
  %40 = getelementptr inbounds %"class.gmx::(anonymous namespace)::ElectricField", ptr %24, i32 0, i32 5
  store ptr %38, ptr %40, align 8
  call void @_ZNSt10filesystem7__cxx114pathD2Ev(ptr noundef nonnull align 8 dereferenceable(40) %13) #16
  br label %69

41:                                               ; preds = %34
  %42 = landingpad { ptr, i32 }
          cleanup
  %43 = extractvalue { ptr, i32 } %42, 0
  store ptr %43, ptr %15, align 8
  %44 = extractvalue { ptr, i32 } %42, 1
  store i32 %44, ptr %16, align 4
  call void @_ZNSt10filesystem7__cxx114pathD2Ev(ptr noundef nonnull align 8 dereferenceable(40) %13) #16
  br label %72

45:                                               ; preds = %31
  %46 = load i32, ptr %9, align 4
  %47 = load ptr, ptr %10, align 8
  %48 = call noundef ptr @_Z6opt2fnPKciPK8t_filenm(ptr noundef @.str.30, i32 noundef %46, ptr noundef %47)
  store ptr %48, ptr %18, align 8
  call void @_ZNSt10filesystem7__cxx114pathC2IPKcS1_EERKT_NS1_6formatE(ptr noundef nonnull align 8 dereferenceable(40) %17, ptr noundef nonnull align 8 dereferenceable(8) %18, i8 noundef zeroext 2)
  call void @_ZNSaIcEC1Ev(ptr noundef nonnull align 1 dereferenceable(1) %20) #16
  invoke void @_ZNSt7__cxx1112basic_stringIcSt11char_traitsIcESaIcEEC2IS3_EEPKcRKS3_(ptr noundef nonnull align 8 dereferenceable(32) %19, ptr noundef @.str.33, ptr noundef nonnull align 1 dereferenceable(1) %20)
          to label %49 unwind label %55

49:                                               ; preds = %45
  call void @_ZNSaIcEC1Ev(ptr noundef nonnull align 1 dereferenceable(1) %22) #16
  invoke void @_ZNSt7__cxx1112basic_stringIcSt11char_traitsIcESaIcEEC2IS3_EEPKcRKS3_(ptr noundef nonnull align 8 dereferenceable(32) %21, ptr noundef @.str.34, ptr noundef nonnull align 1 dereferenceable(1) %22)
          to label %50 unwind label %59

50:                                               ; preds = %49
  %51 = load ptr, ptr %12, align 8
  %52 = invoke noundef ptr @_Z8xvgropenRKNSt10filesystem7__cxx114pathEPKcRKNSt7__cxx1112basic_stringIcSt11char_traitsIcESaIcEEESD_PK16gmx_output_env_t(ptr noundef nonnull align 8 dereferenceable(40) %17, ptr noundef @.str.32, ptr noundef nonnull align 8 dereferenceable(32) %19, ptr noundef nonnull align 8 dereferenceable(32) %21, ptr noundef %51)
          to label %53 unwind label %63

53:                                               ; preds = %50
  %54 = getelementptr inbounds %"class.gmx::(anonymous namespace)::ElectricField", ptr %24, i32 0, i32 5
  store ptr %52, ptr %54, align 8
  call void @_ZNSt7__cxx1112basic_stringIcSt11char_traitsIcESaIcEED1Ev(ptr noundef nonnull align 8 dereferenceable(32) %21) #16
  call void @_ZNSaIcED1Ev(ptr noundef nonnull align 1 dereferenceable(1) %22) #16
  call void @_ZNSt7__cxx1112basic_stringIcSt11char_traitsIcESaIcEED1Ev(ptr noundef nonnull align 8 dereferenceable(32) %19) #16
  call void @_ZNSaIcED1Ev(ptr noundef nonnull align 1 dereferenceable(1) %20) #16
  call void @_ZNSt10filesystem7__cxx114pathD2Ev(ptr noundef nonnull align 8 dereferenceable(40) %17) #16
  br label %69

55:                                               ; preds = %45
  %56 = landingpad { ptr, i32 }
          cleanup
  %57 = extractvalue { ptr, i32 } %56, 0
  store ptr %57, ptr %15, align 8
  %58 = extractvalue { ptr, i32 } %56, 1
  store i32 %58, ptr %16, align 4
  br label %68

59:                                               ; preds = %49
  %60 = landingpad { ptr, i32 }
          cleanup
  %61 = extractvalue { ptr, i32 } %60, 0
  store ptr %61, ptr %15, align 8
  %62 = extractvalue { ptr, i32 } %60, 1
  store i32 %62, ptr %16, align 4
  br label %67

63:                                               ; preds = %50
  %64 = landingpad { ptr, i32 }
          cleanup
  %65 = extractvalue { ptr, i32 } %64, 0
  store ptr %65, ptr %15, align 8
  %66 = extractvalue { ptr, i32 } %64, 1
  store i32 %66, ptr %16, align 4
  call void @_ZNSt7__cxx1112basic_stringIcSt11char_traitsIcESaIcEED1Ev(ptr noundef nonnull align 8 dereferenceable(32) %21) #16
  br label %67

67:                                               ; preds = %63, %59
  call void @_ZNSaIcED1Ev(ptr noundef nonnull align 1 dereferenceable(1) %22) #16
  call void @_ZNSt7__cxx1112basic_stringIcSt11char_traitsIcESaIcEED1Ev(ptr noundef nonnull align 8 dereferenceable(32) %19) #16
  br label %68

68:                                               ; preds = %67, %55
  call void @_ZNSaIcED1Ev(ptr noundef nonnull align 1 dereferenceable(1) %20) #16
  call void @_ZNSt10filesystem7__cxx114pathD2Ev(ptr noundef nonnull align 8 dereferenceable(40) %17) #16
  br label %72

69:                                               ; preds = %53, %39
  br label %70

70:                                               ; preds = %69, %26
  br label %71

71:                                               ; preds = %70, %6
  ret void

72:                                               ; preds = %68, %41
  %73 = load ptr, ptr %15, align 8
  %74 = load i32, ptr %16, align 4
  %75 = insertvalue { ptr, i32 } poison, ptr %73, 0
  %76 = insertvalue { ptr, i32 } %75, i32 %74, 1
  resume { ptr, i32 } %76
}