; Function Attrs: mustprogress uwtable
define internal void @_ZN3gmx12_GLOBAL__N_113ElectricField10initOutputEP8_IO_FILEiPK8t_filenmbPK16gmx_output_env_t(ptr nocapture noundef nonnull align 8 dereferenceable(88) %0, ptr noundef %1, i32 noundef %2, ptr noundef %3, i1 noundef zeroext %4, ptr noundef %5) unnamed_addr #0 align 2 personality ptr @__gxx_personality_v0 {
  %7 = alloca %"class.std::filesystem::__cxx11::path", align 8
  %8 = alloca ptr, align 8
  %9 = alloca %"class.std::filesystem::__cxx11::path", align 8
  %10 = alloca ptr, align 8
  %11 = alloca %"class.std::__cxx11::basic_string", align 8
  %12 = alloca %"class.std::allocator.37", align 1
  %13 = alloca %"class.std::__cxx11::basic_string", align 8
  %14 = alloca %"class.std::allocator.37", align 1
  %15 = getelementptr inbounds i8, ptr %0, i64 32
  %.val.i = load float, ptr %15, align 8
  %16 = fcmp une float %.val.i, 0.000000e+00
  %17 = getelementptr inbounds i8, ptr %0, i64 48
  %.val1.i = load float, ptr %17, align 8
  %18 = fcmp une float %.val1.i, 0.000000e+00
  %or.cond.i = select i1 %16, i1 true, i1 %18
  %19 = getelementptr inbounds i8, ptr %0, i64 64
  %.val2.i = load float, ptr %19, align 8
  %20 = fcmp une float %.val2.i, 0.000000e+00
  %or.cond = select i1 %or.cond.i, i1 true, i1 %20
  br i1 %or.cond, label %_ZNK3gmx12_GLOBAL__N_113ElectricField8isActiveEv.exit.thread, label %52

_ZNK3gmx12_GLOBAL__N_113ElectricField8isActiveEv.exit.thread: ; preds = %6
  tail call void @_Z11please_citeP8_IO_FILEPKc(ptr noundef %1, ptr noundef nonnull @.str.29)
  %21 = tail call noundef zeroext i1 @_Z8opt2bSetPKciPK8t_filenm(ptr noundef nonnull @.str.30, i32 noundef %2, ptr noundef %3)
  br i1 %21, label %22, label %52

22:                                               ; preds = %_ZNK3gmx12_GLOBAL__N_113ElectricField8isActiveEv.exit.thread
  %23 = tail call noundef ptr @_Z6opt2fnPKciPK8t_filenm(ptr noundef nonnull @.str.30, i32 noundef %2, ptr noundef %3)
  br i1 %4, label %24, label %33

24:                                               ; preds = %22
  store ptr %23, ptr %8, align 8
  call void @_ZNSt10filesystem7__cxx114pathC2IPKcS1_EERKT_NS1_6formatE(ptr noundef nonnull align 8 dereferenceable(40) %7, ptr noundef nonnull align 8 dereferenceable(8) %8, i8 noundef zeroext 2)
  %25 = invoke noundef ptr @_Z13gmx_fio_fopenRKNSt10filesystem7__cxx114pathEPKc(ptr noundef nonnull align 8 dereferenceable(40) %7, ptr noundef nonnull @.str.31)
          to label %26 unwind label %31

26:                                               ; preds = %24
  %27 = getelementptr inbounds i8, ptr %0, i64 80
  store ptr %25, ptr %27, align 8
  %28 = getelementptr inbounds i8, ptr %7, i64 32
  %29 = load ptr, ptr %28, align 8
  %.not.i.i.i = icmp eq ptr %29, null
  br i1 %.not.i.i.i, label %.sink.split, label %30

30:                                               ; preds = %26
  call void @_ZNKSt10filesystem7__cxx114path5_List13_Impl_deleterclEPNS2_5_ImplE(ptr noundef nonnull align 1 dereferenceable(1) %28, ptr noundef nonnull %29) #26
  br label %.sink.split

31:                                               ; preds = %24
  %32 = landingpad { ptr, i32 }
          cleanup
  br label %53

33:                                               ; preds = %22
  store ptr %23, ptr %10, align 8
  call void @_ZNSt10filesystem7__cxx114pathC2IPKcS1_EERKT_NS1_6formatE(ptr noundef nonnull align 8 dereferenceable(40) %9, ptr noundef nonnull align 8 dereferenceable(8) %10, i8 noundef zeroext 2)
  call void @_ZNSaIcEC1Ev(ptr noundef nonnull align 1 dereferenceable(1) %12) #26
  %34 = invoke noundef ptr @_ZNSt7__cxx1112basic_stringIcSt11char_traitsIcESaIcEE13_M_local_dataEv(ptr noundef nonnull align 8 dereferenceable(32) %11)
          to label %.noexc unwind label %46

.noexc:                                           ; preds = %33
  invoke void @_ZNSt7__cxx1112basic_stringIcSt11char_traitsIcESaIcEE12_Alloc_hiderC1EPcRKS3_(ptr noundef nonnull align 8 dereferenceable(8) %11, ptr noundef %34, ptr noundef nonnull align 1 dereferenceable(1) %12)
          to label %.noexc18 unwind label %46

.noexc18:                                         ; preds = %.noexc
  invoke void @_ZNSt7__cxx1112basic_stringIcSt11char_traitsIcESaIcEE12_M_constructIPKcEEvT_S8_St20forward_iterator_tag(ptr noundef nonnull align 8 dereferenceable(32) %11, ptr noundef nonnull @.str.33, ptr noundef nonnull getelementptr inbounds ([10 x i8], ptr @.str.33, i64 0, i64 9))
          to label %_ZNSt7__cxx1112basic_stringIcSt11char_traitsIcESaIcEEC2IS3_EEPKcRKS3_.exit unwind label %35

35:                                               ; preds = %.noexc18
  %36 = landingpad { ptr, i32 }
          cleanup
  call void @_ZNSaIcED2Ev(ptr noundef nonnull align 1 dereferenceable(1) %11) #26
  br label %.body

_ZNSt7__cxx1112basic_stringIcSt11char_traitsIcESaIcEEC2IS3_EEPKcRKS3_.exit: ; preds = %.noexc18
  call void @_ZNSaIcEC1Ev(ptr noundef nonnull align 1 dereferenceable(1) %14) #26
  %37 = invoke noundef ptr @_ZNSt7__cxx1112basic_stringIcSt11char_traitsIcESaIcEE13_M_local_dataEv(ptr noundef nonnull align 8 dereferenceable(32) %13)
          to label %.noexc19 unwind label %48

.noexc19:                                         ; preds = %_ZNSt7__cxx1112basic_stringIcSt11char_traitsIcESaIcEEC2IS3_EEPKcRKS3_.exit
  invoke void @_ZNSt7__cxx1112basic_stringIcSt11char_traitsIcESaIcEE12_Alloc_hiderC1EPcRKS3_(ptr noundef nonnull align 8 dereferenceable(8) %13, ptr noundef %37, ptr noundef nonnull align 1 dereferenceable(1) %14)
          to label %.noexc20 unwind label %48

.noexc20:                                         ; preds = %.noexc19
  invoke void @_ZNSt7__cxx1112basic_stringIcSt11char_traitsIcESaIcEE12_M_constructIPKcEEvT_S8_St20forward_iterator_tag(ptr noundef nonnull align 8 dereferenceable(32) %13, ptr noundef nonnull @.str.34, ptr noundef nonnull getelementptr inbounds ([9 x i8], ptr @.str.34, i64 0, i64 8))
          to label %_ZNSt7__cxx1112basic_stringIcSt11char_traitsIcESaIcEEC2IS3_EEPKcRKS3_.exit23 unwind label %38

38:                                               ; preds = %.noexc20
  %39 = landingpad { ptr, i32 }
          cleanup
  call void @_ZNSaIcED2Ev(ptr noundef nonnull align 1 dereferenceable(1) %13) #26
  br label %.body21

_ZNSt7__cxx1112basic_stringIcSt11char_traitsIcESaIcEEC2IS3_EEPKcRKS3_.exit23: ; preds = %.noexc20
  %40 = invoke noundef ptr @_Z8xvgropenRKNSt10filesystem7__cxx114pathEPKcRKNSt7__cxx1112basic_stringIcSt11char_traitsIcESaIcEEESD_PK16gmx_output_env_t(ptr noundef nonnull align 8 dereferenceable(40) %9, ptr noundef nonnull @.str.32, ptr noundef nonnull align 8 dereferenceable(32) %11, ptr noundef nonnull align 8 dereferenceable(32) %13, ptr noundef %5)
          to label %41 unwind label %50

41:                                               ; preds = %_ZNSt7__cxx1112basic_stringIcSt11char_traitsIcESaIcEEC2IS3_EEPKcRKS3_.exit23
  %42 = getelementptr inbounds i8, ptr %0, i64 80
  store ptr %40, ptr %42, align 8
  call void @_ZNSt7__cxx1112basic_stringIcSt11char_traitsIcESaIcEED1Ev(ptr noundef nonnull align 8 dereferenceable(32) %13) #26
  call void @_ZNSaIcED1Ev(ptr noundef nonnull align 1 dereferenceable(1) %14) #26
  call void @_ZNSt7__cxx1112basic_stringIcSt11char_traitsIcESaIcEED1Ev(ptr noundef nonnull align 8 dereferenceable(32) %11) #26
  call void @_ZNSaIcED1Ev(ptr noundef nonnull align 1 dereferenceable(1) %12) #26
  %43 = getelementptr inbounds i8, ptr %9, i64 32
  %44 = load ptr, ptr %43, align 8
  %.not.i.i.i24 = icmp eq ptr %44, null
  br i1 %.not.i.i.i24, label %.sink.split, label %45

45:                                               ; preds = %41
  call void @_ZNKSt10filesystem7__cxx114path5_List13_Impl_deleterclEPNS2_5_ImplE(ptr noundef nonnull align 1 dereferenceable(1) %43, ptr noundef nonnull %44) #26
  br label %.sink.split

46:                                               ; preds = %.noexc, %33
  %47 = landingpad { ptr, i32 }
          cleanup
  br label %.body

48:                                               ; preds = %.noexc19, %_ZNSt7__cxx1112basic_stringIcSt11char_traitsIcESaIcEEC2IS3_EEPKcRKS3_.exit
  %49 = landingpad { ptr, i32 }
          cleanup
  br label %.body21

50:                                               ; preds = %_ZNSt7__cxx1112basic_stringIcSt11char_traitsIcESaIcEEC2IS3_EEPKcRKS3_.exit23
  %51 = landingpad { ptr, i32 }
          cleanup
  call void @_ZNSt7__cxx1112basic_stringIcSt11char_traitsIcESaIcEED1Ev(ptr noundef nonnull align 8 dereferenceable(32) %13) #26
  br label %.body21

.body21:                                          ; preds = %48, %38, %50
  %.pn = phi { ptr, i32 } [ %51, %50 ], [ %49, %48 ], [ %39, %38 ]
  call void @_ZNSaIcED1Ev(ptr noundef nonnull align 1 dereferenceable(1) %14) #26
  call void @_ZNSt7__cxx1112basic_stringIcSt11char_traitsIcESaIcEED1Ev(ptr noundef nonnull align 8 dereferenceable(32) %11) #26
  br label %.body

.body:                                            ; preds = %46, %35, %.body21
  %.pn.pn = phi { ptr, i32 } [ %.pn, %.body21 ], [ %47, %46 ], [ %36, %35 ]
  call void @_ZNSaIcED1Ev(ptr noundef nonnull align 1 dereferenceable(1) %12) #26
  br label %53

.sink.split:                                      ; preds = %45, %41, %30, %26
  %.sink27 = phi ptr [ %28, %26 ], [ %28, %30 ], [ %43, %41 ], [ %43, %45 ]
  %.sink = phi ptr [ %7, %26 ], [ %7, %30 ], [ %9, %41 ], [ %9, %45 ]
  store ptr null, ptr %.sink27, align 8
  call void @_ZNSt7__cxx1112basic_stringIcSt11char_traitsIcESaIcEED1Ev(ptr noundef nonnull align 8 dereferenceable(32) %.sink) #26
  br label %52

52:                                               ; preds = %.sink.split, %6, %_ZNK3gmx12_GLOBAL__N_113ElectricField8isActiveEv.exit.thread
  ret void

53:                                               ; preds = %.body, %31
  %.sink28 = phi ptr [ %9, %.body ], [ %7, %31 ]
  %.pn16 = phi { ptr, i32 } [ %.pn.pn, %.body ], [ %32, %31 ]
  call void @_ZNSt10filesystem7__cxx114pathD2Ev(ptr noundef nonnull align 8 dereferenceable(40) %.sink28) #26
  resume { ptr, i32 } %.pn16
}